target datalayout = "e-m:e-p270:32:32-p271:32:32-p272:64:64-i64:64-i128:128-f80:128-n8:16:32:64-S128"
target triple = "x86_64-pc-linux-gnu"

%struct.AVFormatContext = type { ptr, ptr, ptr, ptr, ptr, i32, i32, ptr, i32, ptr, i32, ptr, ptr, i64, i64, i64, i32, i32, i32, i64, i64, ptr, i32, i32, ptr, i32, i32, i32, i32, ptr, i64, i32, i32, %struct.AVIOInterruptCB, i32, i32, i32, i32, i64, i32, i32, i32, i32, i32, i32, i32, i32, i32, i32, i32, i32, i64, i32, i32, i32, i32, i32, ptr, ptr, ptr, ptr, i32, ptr, ptr, ptr, ptr, i32, ptr, ptr, i64, ptr, ptr, ptr, i64 }
%struct.AVIOInterruptCB = type { ptr, ptr }
%struct.AVStream = type { ptr, i32, i32, ptr, ptr, %struct.AVRational, i64, i64, i64, i32, i32, %struct.AVRational, ptr, %struct.AVRational, %struct.AVPacket, i32, %struct.AVRational, i32 }
%struct.AVPacket = type { ptr, i64, i64, ptr, i32, i32, i32, ptr, i32, i64, i64, ptr, ptr, %struct.AVRational }
%struct.AVRational = type { i32, i32 }
%struct.AVCodecParameters = type { i32, i32, i32, ptr, i32, ptr, i32, i32, i64, i32, i32, i32, i32, i32, i32, %struct.AVRational, %struct.AVRational, i32, i32, i32, i32, i32, i32, i32, %struct.AVChannelLayout, i32, i32, i32, i32, i32, i32 }
%struct.AVChannelLayout = type { i32, i32, %union.anon.0, ptr }
%union.anon.0 = type { i64 }
%struct.ASTMuxContext = type { ptr, i64, i64, i64, i64, i32 }
%struct.AVIOContext = type { ptr, ptr, i32, ptr, ptr, ptr, ptr, ptr, ptr, i64, i32, i32, i32, i32, i32, i64, ptr, ptr, ptr, ptr, i32, i32, ptr, ptr, ptr, i32, ptr, i64, i64 }

@.str.16 = private unnamed_addr constant [20 x i8] c"total samples: %ld\0A\00", align 1
@.str.17 = private unnamed_addr constant [53 x i8] c"Loopstart value is out of range and will be ignored\0A\00", align 1
@.str.18 = private unnamed_addr constant [51 x i8] c"Loopend value is out of range and will be ignored\0A\00", align 1

; Function Attrs: alwaysinline nounwind uwtable
define internal i64 @avio_tell(ptr noundef %0) #4 {
  %2 = alloca ptr, align 8
  store ptr %0, ptr %2, align 8, !tbaa !29
  %3 = load ptr, ptr %2, align 8, !tbaa !29
  %4 = call i64 @avio_seek(ptr noundef %3, i64 noundef 0, i32 noundef 1)
  ret i64 %4
}

; Function Attrs: nounwind uwtable
define internal i32 @ast_write_trailer(ptr noundef %0) #0 {
  %2 = alloca ptr, align 8
  %3 = alloca ptr, align 8
  %4 = alloca ptr, align 8
  %5 = alloca ptr, align 8
  %6 = alloca i64, align 8
  %7 = alloca i64, align 8
  store ptr %0, ptr %2, align 8, !tbaa !4
  call void @llvm.lifetime.start.p0(i64 8, ptr %3) #5
  %8 = load ptr, ptr %2, align 8, !tbaa !4
  %9 = getelementptr inbounds nuw %struct.AVFormatContext, ptr %8, i32 0, i32 4
  %10 = load ptr, ptr %9, align 8, !tbaa !28
  store ptr %10, ptr %3, align 8, !tbaa !29
  call void @llvm.lifetime.start.p0(i64 8, ptr %4) #5
  %11 = load ptr, ptr %2, align 8, !tbaa !4
  %12 = getelementptr inbounds nuw %struct.AVFormatContext, ptr %11, i32 0, i32 3
  %13 = load ptr, ptr %12, align 8, !tbaa !9
  store ptr %13, ptr %4, align 8, !tbaa !26
  call void @llvm.lifetime.start.p0(i64 8, ptr %5) #5
  %14 = load ptr, ptr %2, align 8, !tbaa !4
  %15 = getelementptr inbounds nuw %struct.AVFormatContext, ptr %14, i32 0, i32 7
  %16 = load ptr, ptr %15, align 8, !tbaa !30
  %17 = getelementptr inbounds ptr, ptr %16, i64 0
  %18 = load ptr, ptr %17, align 8, !tbaa !31
  %19 = getelementptr inbounds nuw %struct.AVStream, ptr %18, i32 0, i32 3
  %20 = load ptr, ptr %19, align 8, !tbaa !33
  store ptr %20, ptr %5, align 8, !tbaa !40
  call void @llvm.lifetime.start.p0(i64 8, ptr %6) #5
  %21 = load ptr, ptr %3, align 8, !tbaa !29
  %22 = call i64 @avio_tell(ptr noundef %21)
  store i64 %22, ptr %6, align 8, !tbaa !58
  call void @llvm.lifetime.start.p0(i64 8, ptr %7) #5
  %23 = load i64, ptr %6, align 8, !tbaa !58
  %24 = sub nsw i64 %23, 64
  %25 = load ptr, ptr %2, align 8, !tbaa !4
  %26 = getelementptr inbounds nuw %struct.AVFormatContext, ptr %25, i32 0, i32 7
  %27 = load ptr, ptr %26, align 8, !tbaa !30
  %28 = getelementptr inbounds ptr, ptr %27, i64 0
  %29 = load ptr, ptr %28, align 8, !tbaa !31
  %30 = getelementptr inbounds nuw %struct.AVStream, ptr %29, i32 0, i32 8
  %31 = load i64, ptr %30, align 8, !tbaa !55
  %32 = mul nsw i64 32, %31
  %33 = sub nsw i64 %24, %32
  %34 = load ptr, ptr %5, align 8, !tbaa !40
  %35 = getelementptr inbounds nuw %struct.AVCodecParameters, ptr %34, i32 0, i32 26
  %36 = load i32, ptr %35, align 4, !tbaa !59
  %37 = sext i32 %36 to i64
  %38 = sdiv i64 %33, %37
  store i64 %38, ptr %7, align 8, !tbaa !58
  %39 = load ptr, ptr %2, align 8, !tbaa !4
  %40 = load i64, ptr %7, align 8, !tbaa !58
  call void (ptr, i32, ptr, ...) @av_log(ptr noundef %39, i32 noundef 48, ptr noundef @.str.16, i64 noundef %40)
  %41 = load ptr, ptr %2, align 8, !tbaa !4
  %42 = getelementptr inbounds nuw %struct.AVFormatContext, ptr %41, i32 0, i32 4
  %43 = load ptr, ptr %42, align 8, !tbaa !28
  %44 = getelementptr inbounds nuw %struct.AVIOContext, ptr %43, i32 0, i32 20
  %45 = load i32, ptr %44, align 8, !tbaa !60
  %46 = and i32 %45, 1
  %47 = icmp ne i32 %46, 0
  br i1 %47, label %48, label %140

48:                                               ; preds = %1
  %49 = load ptr, ptr %3, align 8, !tbaa !29
  %50 = load ptr, ptr %4, align 8, !tbaa !26
  %51 = getelementptr inbounds nuw %struct.ASTMuxContext, ptr %50, i32 0, i32 2
  %52 = load i64, ptr %51, align 8, !tbaa !51
  %53 = call i64 @avio_seek(ptr noundef %49, i64 noundef %52, i32 noundef 0)
  %54 = load ptr, ptr %3, align 8, !tbaa !29
  %55 = load i64, ptr %7, align 8, !tbaa !58
  %56 = trunc i64 %55 to i32
  call void @avio_wb32(ptr noundef %54, i32 noundef %56)
  %57 = load ptr, ptr %4, align 8, !tbaa !26
  %58 = getelementptr inbounds nuw %struct.ASTMuxContext, ptr %57, i32 0, i32 3
  %59 = load i64, ptr %58, align 8, !tbaa !47
  %60 = icmp sgt i64 %59, 0
  br i1 %60, label %61, label %80

61:                                               ; preds = %48
  %62 = load ptr, ptr %4, align 8, !tbaa !26
  %63 = getelementptr inbounds nuw %struct.ASTMuxContext, ptr %62, i32 0, i32 3
  %64 = load i64, ptr %63, align 8, !tbaa !47
  %65 = load i64, ptr %7, align 8, !tbaa !58
  %66 = icmp sge i64 %64, %65
  br i1 %66, label %67, label %73

67:                                               ; preds = %61
  %68 = load ptr, ptr %2, align 8, !tbaa !4
  call void (ptr, i32, ptr, ...) @av_log(ptr noundef %68, i32 noundef 24, ptr noundef @.str.17)
  %69 = load ptr, ptr %4, align 8, !tbaa !26
  %70 = getelementptr inbounds nuw %struct.ASTMuxContext, ptr %69, i32 0, i32 3
  store i64 -1, ptr %70, align 8, !tbaa !47
  %71 = load ptr, ptr %3, align 8, !tbaa !29
  %72 = call i64 @avio_skip(ptr noundef %71, i64 noundef 4)
  br label %79

73:                                               ; preds = %61
  %74 = load ptr, ptr %3, align 8, !tbaa !29
  %75 = load ptr, ptr %4, align 8, !tbaa !26
  %76 = getelementptr inbounds nuw %struct.ASTMuxContext, ptr %75, i32 0, i32 3
  %77 = load i64, ptr %76, align 8, !tbaa !47
  %78 = trunc i64 %77 to i32
  call void @avio_wb32(ptr noundef %74, i32 noundef %78)
  br label %79

79:                                               ; preds = %73, %67
  br label %83

80:                                               ; preds = %48
  %81 = load ptr, ptr %3, align 8, !tbaa !29
  %82 = call i64 @avio_skip(ptr noundef %81, i64 noundef 4)
  br label %83

83:                                               ; preds = %80, %79
  %84 = load ptr, ptr %4, align 8, !tbaa !26
  %85 = getelementptr inbounds nuw %struct.ASTMuxContext, ptr %84, i32 0, i32 4
  %86 = load i64, ptr %85, align 8, !tbaa !45
  %87 = icmp ne i64 %86, 0
  br i1 %87, label %88, label %110

88:                                               ; preds = %83
  %89 = load ptr, ptr %4, align 8, !tbaa !26
  %90 = getelementptr inbounds nuw %struct.ASTMuxContext, ptr %89, i32 0, i32 3
  %91 = load i64, ptr %90, align 8, !tbaa !47
  %92 = icmp sge i64 %91, 0
  br i1 %92, label %93, label %110

93:                                               ; preds = %88
  %94 = load ptr, ptr %4, align 8, !tbaa !26
  %95 = getelementptr inbounds nuw %struct.ASTMuxContext, ptr %94, i32 0, i32 4
  %96 = load i64, ptr %95, align 8, !tbaa !45
  %97 = load i64, ptr %7, align 8, !tbaa !58
  %98 = icmp sgt i64 %96, %97
  br i1 %98, label %99, label %104

99:                                               ; preds = %93
  %100 = load ptr, ptr %2, align 8, !tbaa !4
  call void (ptr, i32, ptr, ...) @av_log(ptr noundef %100, i32 noundef 24, ptr noundef @.str.18)
  %101 = load i64, ptr %7, align 8, !tbaa !58
  %102 = load ptr, ptr %4, align 8, !tbaa !26
  %103 = getelementptr inbounds nuw %struct.ASTMuxContext, ptr %102, i32 0, i32 4
  store i64 %101, ptr %103, align 8, !tbaa !45
  br label %104

104:                                              ; preds = %99, %93
  %105 = load ptr, ptr %3, align 8, !tbaa !29
  %106 = load ptr, ptr %4, align 8, !tbaa !26
  %107 = getelementptr inbounds nuw %struct.ASTMuxContext, ptr %106, i32 0, i32 4
  %108 = load i64, ptr %107, align 8, !tbaa !45
  %109 = trunc i64 %108 to i32
  call void @avio_wb32(ptr noundef %105, i32 noundef %109)
  br label %114

110:                                              ; preds = %88, %83
  %111 = load ptr, ptr %3, align 8, !tbaa !29
  %112 = load i64, ptr %7, align 8, !tbaa !58
  %113 = trunc i64 %112 to i32
  call void @avio_wb32(ptr noundef %111, i32 noundef %113)
  br label %114

114:                                              ; preds = %110, %104
  %115 = load ptr, ptr %3, align 8, !tbaa !29
  %116 = load ptr, ptr %4, align 8, !tbaa !26
  %117 = getelementptr inbounds nuw %struct.ASTMuxContext, ptr %116, i32 0, i32 5
  %118 = load i32, ptr %117, align 8, !tbaa !56
  call void @avio_wb32(ptr noundef %115, i32 noundef %118)
  %119 = load ptr, ptr %3, align 8, !tbaa !29
  %120 = load ptr, ptr %4, align 8, !tbaa !26
  %121 = getelementptr inbounds nuw %struct.ASTMuxContext, ptr %120, i32 0, i32 1
  %122 = load i64, ptr %121, align 8, !tbaa !49
  %123 = call i64 @avio_seek(ptr noundef %119, i64 noundef %122, i32 noundef 0)
  %124 = load ptr, ptr %3, align 8, !tbaa !29
  %125 = load i64, ptr %6, align 8, !tbaa !58
  %126 = sub nsw i64 %125, 64
  %127 = trunc i64 %126 to i32
  call void @avio_wb32(ptr noundef %124, i32 noundef %127)
  %128 = load ptr, ptr %4, align 8, !tbaa !26
  %129 = getelementptr inbounds nuw %struct.ASTMuxContext, ptr %128, i32 0, i32 3
  %130 = load i64, ptr %129, align 8, !tbaa !47
  %131 = icmp sge i64 %130, 0
  br i1 %131, label %132, label %136

132:                                              ; preds = %114
  %133 = load ptr, ptr %3, align 8, !tbaa !29
  %134 = call i64 @avio_skip(ptr noundef %133, i64 noundef 6)
  %135 = load ptr, ptr %3, align 8, !tbaa !29
  call void @avio_wb16(ptr noundef %135, i32 noundef 65535)
  br label %136

136:                                              ; preds = %132, %114
  %137 = load ptr, ptr %3, align 8, !tbaa !29
  %138 = load i64, ptr %6, align 8, !tbaa !58
  %139 = call i64 @avio_seek(ptr noundef %137, i64 noundef %138, i32 noundef 0)
  br label %140

140:                                              ; preds = %136, %1
  call void @llvm.lifetime.end.p0(i64 8, ptr %7) #5
  call void @llvm.lifetime.end.p0(i64 8, ptr %6) #5
  call void @llvm.lifetime.end.p0(i64 8, ptr %5) #5
  call void @llvm.lifetime.end.p0(i64 8, ptr %4) #5
  call void @llvm.lifetime.end.p0(i64 8, ptr %3) #5
  ret i32 0
}