; Function Attrs: nounwind uwtable
define internal noundef i32 @ast_write_trailer(ptr noundef %0) #0 {
  %2 = getelementptr inbounds nuw i8, ptr %0, i64 32
  %3 = load ptr, ptr %2, align 8, !tbaa !24
  %4 = getelementptr inbounds nuw i8, ptr %0, i64 24
  %5 = load ptr, ptr %4, align 8, !tbaa !4
  %6 = getelementptr inbounds nuw i8, ptr %0, i64 48
  %7 = load ptr, ptr %6, align 8, !tbaa !25
  %8 = load ptr, ptr %7, align 8, !tbaa !26
  %9 = getelementptr inbounds nuw i8, ptr %8, i64 16
  %10 = load ptr, ptr %9, align 8, !tbaa !28
  %11 = tail call i64 @avio_seek(ptr noundef %3, i64 noundef 0, i32 noundef 1) #3
  %12 = add nsw i64 %11, -64
  %13 = load ptr, ptr %6, align 8, !tbaa !25
  %14 = load ptr, ptr %13, align 8, !tbaa !26
  %15 = getelementptr inbounds nuw i8, ptr %14, i64 56
  %16 = load i64, ptr %15, align 8, !tbaa !46
  %17 = shl nsw i64 %16, 5
  %18 = sub nsw i64 %12, %17
  %19 = getelementptr inbounds nuw i8, ptr %10, i64 156
  %20 = load i32, ptr %19, align 4, !tbaa !49
  %21 = sext i32 %20 to i64
  %22 = sdiv i64 %18, %21
  tail call void (ptr, i32, ptr, ...) @av_log(ptr noundef %0, i32 noundef 48, ptr noundef nonnull @.str.16, i64 noundef %22) #3
  %23 = load ptr, ptr %2, align 8, !tbaa !24
  %24 = getelementptr inbounds nuw i8, ptr %23, i64 144
  %25 = load i32, ptr %24, align 8, !tbaa !50
  %26 = and i32 %25, 1
  %.not = icmp eq i32 %26, 0
  br i1 %.not, label %64, label %27

27:                                               ; preds = %1
  %28 = getelementptr inbounds nuw i8, ptr %5, i64 16
  %29 = load i64, ptr %28, align 8, !tbaa !44
  %30 = tail call i64 @avio_seek(ptr noundef %3, i64 noundef %29, i32 noundef 0) #3
  %31 = trunc i64 %22 to i32
  tail call void @avio_wb32(ptr noundef %3, i32 noundef %31) #3
  %32 = getelementptr inbounds nuw i8, ptr %5, i64 24
  %33 = load i64, ptr %32, align 8, !tbaa !40
  %34 = icmp sgt i64 %33, 0
  br i1 %34, label %35, label %40

35:                                               ; preds = %27
  %.not46 = icmp slt i64 %33, %22
  br i1 %.not46, label %38, label %36

36:                                               ; preds = %35
  tail call void (ptr, i32, ptr, ...) @av_log(ptr noundef nonnull %0, i32 noundef 24, ptr noundef nonnull @.str.17) #3
  store i64 -1, ptr %32, align 8, !tbaa !40
  %37 = tail call i64 @avio_skip(ptr noundef %3, i64 noundef 4) #3
  br label %42

38:                                               ; preds = %35
  %39 = trunc i64 %33 to i32
  tail call void @avio_wb32(ptr noundef %3, i32 noundef %39) #3
  br label %42

40:                                               ; preds = %27
  %41 = tail call i64 @avio_skip(ptr noundef %3, i64 noundef 4) #3
  br label %42

42:                                               ; preds = %36, %38, %40
  %43 = getelementptr inbounds nuw i8, ptr %5, i64 32
  %44 = load i64, ptr %43, align 8, !tbaa !38
  %.not47 = icmp eq i64 %44, 0
  br i1 %.not47, label %51, label %45

45:                                               ; preds = %42
  %46 = load i64, ptr %32, align 8, !tbaa !40
  %47 = icmp sgt i64 %46, -1
  br i1 %47, label %48, label %51

48:                                               ; preds = %45
  %49 = icmp sgt i64 %44, %22
  br i1 %49, label %50, label %._crit_edge

._crit_edge:                                      ; preds = %48
  %.pre = trunc i64 %44 to i32
  br label %51

50:                                               ; preds = %48
  tail call void (ptr, i32, ptr, ...) @av_log(ptr noundef nonnull %0, i32 noundef 24, ptr noundef nonnull @.str.18) #3
  store i64 %22, ptr %43, align 8, !tbaa !38
  br label %51

51:                                               ; preds = %42, %45, %50, %._crit_edge
  %.sink = phi i32 [ %.pre, %._crit_edge ], [ %31, %50 ], [ %31, %45 ], [ %31, %42 ]
  tail call void @avio_wb32(ptr noundef %3, i32 noundef %.sink) #3
  %52 = getelementptr inbounds nuw i8, ptr %5, i64 40
  %53 = load i32, ptr %52, align 8, !tbaa !47
  tail call void @avio_wb32(ptr noundef %3, i32 noundef %53) #3
  %54 = getelementptr inbounds nuw i8, ptr %5, i64 8
  %55 = load i64, ptr %54, align 8, !tbaa !42
  %56 = tail call i64 @avio_seek(ptr noundef %3, i64 noundef %55, i32 noundef 0) #3
  %57 = trunc i64 %12 to i32
  tail call void @avio_wb32(ptr noundef %3, i32 noundef %57) #3
  %58 = load i64, ptr %32, align 8, !tbaa !40
  %59 = icmp sgt i64 %58, -1
  br i1 %59, label %60, label %62

60:                                               ; preds = %51
  %61 = tail call i64 @avio_skip(ptr noundef %3, i64 noundef 6) #3
  tail call void @avio_wb16(ptr noundef %3, i32 noundef 65535) #3
  br label %62

62:                                               ; preds = %60, %51
  %63 = tail call i64 @avio_seek(ptr noundef %3, i64 noundef %11, i32 noundef 0) #3
  br label %64

64:                                               ; preds = %62, %1
  ret i32 0
}